; Function Attrs: mustprogress uwtable
define void @_Z13gmx_calc_comgPK10gmx_mtop_tPA3_fiPKibPf(ptr noundef %0, ptr noundef readonly captures(none) %1, i32 noundef %2, ptr noundef readonly captures(none) %3, i1 noundef zeroext %4, ptr noundef captures(none) %5) local_unnamed_addr #2 {
  br i1 %4, label %7, label %8

7:                                                ; preds = %6
  tail call void @_Z12gmx_calc_comPK10gmx_mtop_tPA3_fiPKiPf(ptr noundef %0, ptr noundef %1, i32 noundef %2, ptr noundef %3, ptr noundef %5)
  br label %37

8:                                                ; preds = %6
  store float 0.000000e+00, ptr %5, align 4, !tbaa !4
  %9 = getelementptr inbounds nuw i8, ptr %5, i64 4
  store float 0.000000e+00, ptr %9, align 4, !tbaa !4
  %10 = getelementptr inbounds nuw i8, ptr %5, i64 8
  store float 0.000000e+00, ptr %10, align 4, !tbaa !4
  %11 = icmp sgt i32 %2, 0
  br i1 %11, label %.lr.ph.i, label %_Z12gmx_calc_cogPK10gmx_mtop_tPA3_fiPKiPf.exit

.lr.ph.i:                                         ; preds = %8
  %wide.trip.count.i = zext nneg i32 %2 to i64
  br label %12

12:                                               ; preds = %12, %.lr.ph.i
  %indvars.iv.i = phi i64 [ 0, %.lr.ph.i ], [ %indvars.iv.next.i, %12 ]
  %13 = phi float [ 0.000000e+00, %.lr.ph.i ], [ %27, %12 ]
  %14 = phi float [ 0.000000e+00, %.lr.ph.i ], [ %24, %12 ]
  %15 = phi float [ 0.000000e+00, %.lr.ph.i ], [ %21, %12 ]
  %16 = getelementptr inbounds nuw i32, ptr %3, i64 %indvars.iv.i
  %17 = load i32, ptr %16, align 4, !tbaa !8
  %18 = sext i32 %17 to i64
  %19 = getelementptr inbounds [3 x float], ptr %1, i64 %18
  %20 = load float, ptr %19, align 4, !tbaa !4
  %21 = fadd float %15, %20
  %22 = getelementptr inbounds nuw i8, ptr %19, i64 4
  %23 = load float, ptr %22, align 4, !tbaa !4
  %24 = fadd float %14, %23
  %25 = getelementptr inbounds nuw i8, ptr %19, i64 8
  %26 = load float, ptr %25, align 4, !tbaa !4
  %27 = fadd float %13, %26
  store float %21, ptr %5, align 4, !tbaa !4
  store float %24, ptr %9, align 4, !tbaa !4
  store float %27, ptr %10, align 4, !tbaa !4
  %indvars.iv.next.i = add nuw nsw i64 %indvars.iv.i, 1
  %exitcond.not.i = icmp eq i64 %indvars.iv.next.i, %wide.trip.count.i
  br i1 %exitcond.not.i, label %_Z12gmx_calc_cogPK10gmx_mtop_tPA3_fiPKiPf.exit, label %12, !llvm.loop !10

_Z12gmx_calc_cogPK10gmx_mtop_tPA3_fiPKiPf.exit:   ; preds = %12, %8
  %28 = phi float [ 0.000000e+00, %8 ], [ %27, %12 ]
  %29 = phi float [ 0.000000e+00, %8 ], [ %24, %12 ]
  %30 = phi float [ 0.000000e+00, %8 ], [ %21, %12 ]
  %31 = sitofp i32 %2 to double
  %32 = fdiv double 1.000000e+00, %31
  %33 = fptrunc double %32 to float
  %34 = fmul float %30, %33
  store float %34, ptr %5, align 4, !tbaa !4
  %35 = fmul float %29, %33
  store float %35, ptr %9, align 4, !tbaa !4
  %36 = fmul float %28, %33
  store float %36, ptr %10, align 4, !tbaa !4
  br label %37

37:                                               ; preds = %_Z12gmx_calc_cogPK10gmx_mtop_tPA3_fiPKiPf.exit, %7
  ret void
}